target datalayout = "e-m:e-p270:32:32-p271:32:32-p272:64:64-i64:64-i128:128-f80:128-n8:16:32:64-S128"
target triple = "x86_64-pc-linux-gnu"

%struct.IDAMemRec = type { double, ptr, ptr, i32, double, double, ptr, i32, ptr, ptr, i32, ptr, ptr, i32, i32, double, double, ptr, i32, i32, i32, ptr, ptr, i32, ptr, ptr, ptr, i32, double, i32, i32, double, ptr, ptr, i32, ptr, ptr, i32, i32, i32, double, ptr, ptr, [6 x ptr], [6 x double], [6 x double], [6 x double], [6 x double], [6 x double], ptr, ptr, ptr, ptr, ptr, ptr, ptr, ptr, ptr, ptr, ptr, ptr, ptr, ptr, ptr, [6 x ptr], ptr, ptr, ptr, ptr, [6 x ptr], ptr, ptr, ptr, ptr, ptr, ptr, ptr, ptr, ptr, ptr, ptr, ptr, ptr, ptr, [6 x ptr], ptr, ptr, ptr, ptr, ptr, double, ptr, ptr, i32, i32, i32, i32, i32, i32, i32, double, double, double, i32, double, i32, i32, i32, i32, double, double, double, double, double, double, double, double, double, double, double, double, double, double, i32, i32, i32, i32, i32, i64, double, i32, i64, i64, i64, i64, i64, i64, i64, i64, i64, i64, i64, i64, i64, i64, i64, i64, i64, i64, i64, i64, i64, i64, i64, i64, ptr, ptr, ptr, i32, i32, i32, i32, i32, i32, i32, i32, i32, i32, i32, i32, i32, ptr, ptr, ptr, ptr, ptr, ptr, i32, i32, i32, i32, i32, i32, double, double, double, ptr, i32, ptr, ptr, double, double, double, ptr, ptr, ptr, double, double, i32, i32, i64, ptr, i32, i32, ptr, i32 }
%struct.IDASpilsMemRec = type { i32, i32, double, i32, i32, double, double, double, i64, i64, i64, i64, i64, i64, i64, i64, i64, i64, i64, i64, ptr, ptr, ptr, ptr, ptr, ptr, ptr, i64, ptr, ptr, ptr, ptr, i32, ptr, ptr }

@.str = private unnamed_addr constant [9 x i8] c"IDASPGMR\00", align 1
@.str.14 = private unnamed_addr constant [13 x i8] c"IDASpgmrPerf\00", align 1
@.str.15 = private unnamed_addr constant [103 x i8] c"Warning: at t = %lg, poor iterative algorithm performance. Average number of linear iterations is %le.\00", align 1
@.str.16 = private unnamed_addr constant [102 x i8] c"Warning: at t = %lg, poor iterative algorithm performance. Nonlinear convergence failure rate is %le.\00", align 1
@.str.17 = private unnamed_addr constant [99 x i8] c"Warning: at t = %lg, poor iterative algorithm performance. Linear convergence failure rate is %le.\00", align 1

; Function Attrs: nounwind uwtable
define internal i32 @IDASpgmrPerf(ptr noundef %0, i32 noundef %1) #0 {
  %3 = alloca i32, align 4
  %4 = alloca ptr, align 8
  %5 = alloca i32, align 4
  %6 = alloca ptr, align 8
  %7 = alloca double, align 8
  %8 = alloca double, align 8
  %9 = alloca double, align 8
  %10 = alloca i64, align 8
  %11 = alloca i64, align 8
  %12 = alloca i32, align 4
  %13 = alloca i32, align 4
  %14 = alloca i32, align 4
  %15 = alloca i32, align 4
  store ptr %0, ptr %4, align 8, !tbaa !9
  store i32 %1, ptr %5, align 4, !tbaa !7
  call void @llvm.lifetime.start.p0(i64 8, ptr %6) #5
  call void @llvm.lifetime.start.p0(i64 8, ptr %7) #5
  call void @llvm.lifetime.start.p0(i64 8, ptr %8) #5
  call void @llvm.lifetime.start.p0(i64 8, ptr %9) #5
  call void @llvm.lifetime.start.p0(i64 8, ptr %10) #5
  call void @llvm.lifetime.start.p0(i64 8, ptr %11) #5
  call void @llvm.lifetime.start.p0(i64 4, ptr %12) #5
  call void @llvm.lifetime.start.p0(i64 4, ptr %13) #5
  call void @llvm.lifetime.start.p0(i64 4, ptr %14) #5
  %16 = load ptr, ptr %4, align 8, !tbaa !9
  %17 = getelementptr inbounds nuw %struct.IDAMemRec, ptr %16, i32 0, i32 176
  %18 = load ptr, ptr %17, align 8, !tbaa !57
  store ptr %18, ptr %6, align 8, !tbaa !31
  %19 = load i32, ptr %5, align 4, !tbaa !7
  %20 = icmp eq i32 %19, 0
  br i1 %20, label %21, label %49

21:                                               ; preds = %2
  %22 = load ptr, ptr %4, align 8, !tbaa !9
  %23 = getelementptr inbounds nuw %struct.IDAMemRec, ptr %22, i32 0, i32 131
  %24 = load i64, ptr %23, align 8, !tbaa !75
  %25 = load ptr, ptr %6, align 8, !tbaa !31
  %26 = getelementptr inbounds nuw %struct.IDASpilsMemRec, ptr %25, i32 0, i32 14
  store i64 %24, ptr %26, align 8, !tbaa !76
  %27 = load ptr, ptr %4, align 8, !tbaa !9
  %28 = getelementptr inbounds nuw %struct.IDAMemRec, ptr %27, i32 0, i32 145
  %29 = load i64, ptr %28, align 8, !tbaa !77
  %30 = load ptr, ptr %6, align 8, !tbaa !31
  %31 = getelementptr inbounds nuw %struct.IDASpilsMemRec, ptr %30, i32 0, i32 15
  store i64 %29, ptr %31, align 8, !tbaa !78
  %32 = load ptr, ptr %6, align 8, !tbaa !31
  %33 = getelementptr inbounds nuw %struct.IDASpilsMemRec, ptr %32, i32 0, i32 9
  %34 = load i64, ptr %33, align 8, !tbaa !60
  %35 = load ptr, ptr %6, align 8, !tbaa !31
  %36 = getelementptr inbounds nuw %struct.IDASpilsMemRec, ptr %35, i32 0, i32 16
  store i64 %34, ptr %36, align 8, !tbaa !79
  %37 = load ptr, ptr %4, align 8, !tbaa !9
  %38 = getelementptr inbounds nuw %struct.IDAMemRec, ptr %37, i32 0, i32 138
  %39 = load i64, ptr %38, align 8, !tbaa !80
  %40 = load ptr, ptr %6, align 8, !tbaa !31
  %41 = getelementptr inbounds nuw %struct.IDASpilsMemRec, ptr %40, i32 0, i32 17
  store i64 %39, ptr %41, align 8, !tbaa !81
  %42 = load ptr, ptr %6, align 8, !tbaa !31
  %43 = getelementptr inbounds nuw %struct.IDASpilsMemRec, ptr %42, i32 0, i32 11
  %44 = load i64, ptr %43, align 8, !tbaa !58
  %45 = load ptr, ptr %6, align 8, !tbaa !31
  %46 = getelementptr inbounds nuw %struct.IDASpilsMemRec, ptr %45, i32 0, i32 18
  store i64 %44, ptr %46, align 8, !tbaa !82
  %47 = load ptr, ptr %6, align 8, !tbaa !31
  %48 = getelementptr inbounds nuw %struct.IDASpilsMemRec, ptr %47, i32 0, i32 19
  store i64 0, ptr %48, align 8, !tbaa !83
  store i32 0, ptr %3, align 4
  store i32 1, ptr %15, align 4
  br label %164

49:                                               ; preds = %2
  %50 = load ptr, ptr %4, align 8, !tbaa !9
  %51 = getelementptr inbounds nuw %struct.IDAMemRec, ptr %50, i32 0, i32 131
  %52 = load i64, ptr %51, align 8, !tbaa !75
  %53 = load ptr, ptr %6, align 8, !tbaa !31
  %54 = getelementptr inbounds nuw %struct.IDASpilsMemRec, ptr %53, i32 0, i32 14
  %55 = load i64, ptr %54, align 8, !tbaa !76
  %56 = sub nsw i64 %52, %55
  store i64 %56, ptr %10, align 8, !tbaa !84
  %57 = load ptr, ptr %4, align 8, !tbaa !9
  %58 = getelementptr inbounds nuw %struct.IDAMemRec, ptr %57, i32 0, i32 145
  %59 = load i64, ptr %58, align 8, !tbaa !77
  %60 = load ptr, ptr %6, align 8, !tbaa !31
  %61 = getelementptr inbounds nuw %struct.IDASpilsMemRec, ptr %60, i32 0, i32 15
  %62 = load i64, ptr %61, align 8, !tbaa !78
  %63 = sub nsw i64 %59, %62
  store i64 %63, ptr %11, align 8, !tbaa !84
  %64 = load i64, ptr %10, align 8, !tbaa !84
  %65 = icmp eq i64 %64, 0
  br i1 %65, label %69, label %66

66:                                               ; preds = %49
  %67 = load i64, ptr %11, align 8, !tbaa !84
  %68 = icmp eq i64 %67, 0
  br i1 %68, label %69, label %70

69:                                               ; preds = %66, %49
  store i32 0, ptr %3, align 4
  store i32 1, ptr %15, align 4
  br label %164

70:                                               ; preds = %66
  %71 = load ptr, ptr %6, align 8, !tbaa !31
  %72 = getelementptr inbounds nuw %struct.IDASpilsMemRec, ptr %71, i32 0, i32 9
  %73 = load i64, ptr %72, align 8, !tbaa !60
  %74 = load ptr, ptr %6, align 8, !tbaa !31
  %75 = getelementptr inbounds nuw %struct.IDASpilsMemRec, ptr %74, i32 0, i32 16
  %76 = load i64, ptr %75, align 8, !tbaa !79
  %77 = sub nsw i64 %73, %76
  %78 = sitofp i64 %77 to double
  %79 = load i64, ptr %11, align 8, !tbaa !84
  %80 = sitofp i64 %79 to double
  %81 = fdiv double %78, %80
  store double %81, ptr %7, align 8, !tbaa !85
  %82 = load ptr, ptr %4, align 8, !tbaa !9
  %83 = getelementptr inbounds nuw %struct.IDAMemRec, ptr %82, i32 0, i32 138
  %84 = load i64, ptr %83, align 8, !tbaa !80
  %85 = load ptr, ptr %6, align 8, !tbaa !31
  %86 = getelementptr inbounds nuw %struct.IDASpilsMemRec, ptr %85, i32 0, i32 17
  %87 = load i64, ptr %86, align 8, !tbaa !81
  %88 = sub nsw i64 %84, %87
  %89 = sitofp i64 %88 to double
  %90 = load i64, ptr %10, align 8, !tbaa !84
  %91 = sitofp i64 %90 to double
  %92 = fdiv double %89, %91
  store double %92, ptr %8, align 8, !tbaa !85
  %93 = load ptr, ptr %6, align 8, !tbaa !31
  %94 = getelementptr inbounds nuw %struct.IDASpilsMemRec, ptr %93, i32 0, i32 11
  %95 = load i64, ptr %94, align 8, !tbaa !58
  %96 = load ptr, ptr %6, align 8, !tbaa !31
  %97 = getelementptr inbounds nuw %struct.IDASpilsMemRec, ptr %96, i32 0, i32 18
  %98 = load i64, ptr %97, align 8, !tbaa !82
  %99 = sub nsw i64 %95, %98
  %100 = sitofp i64 %99 to double
  %101 = load i64, ptr %11, align 8, !tbaa !84
  %102 = sitofp i64 %101 to double
  %103 = fdiv double %100, %102
  store double %103, ptr %9, align 8, !tbaa !85
  %104 = load double, ptr %7, align 8, !tbaa !85
  %105 = load ptr, ptr %6, align 8, !tbaa !31
  %106 = getelementptr inbounds nuw %struct.IDASpilsMemRec, ptr %105, i32 0, i32 3
  %107 = load i32, ptr %106, align 8, !tbaa !35
  %108 = sitofp i32 %107 to double
  %109 = fcmp ogt double %104, %108
  %110 = zext i1 %109 to i32
  store i32 %110, ptr %12, align 4, !tbaa !7
  %111 = load double, ptr %8, align 8, !tbaa !85
  %112 = fcmp ogt double %111, 9.000000e-01
  %113 = zext i1 %112 to i32
  store i32 %113, ptr %13, align 4, !tbaa !7
  %114 = load double, ptr %9, align 8, !tbaa !85
  %115 = fcmp ogt double %114, 9.000000e-01
  %116 = zext i1 %115 to i32
  store i32 %116, ptr %14, align 4, !tbaa !7
  %117 = load i32, ptr %12, align 4, !tbaa !7
  %118 = icmp ne i32 %117, 0
  br i1 %118, label %126, label %119

119:                                              ; preds = %70
  %120 = load i32, ptr %13, align 4, !tbaa !7
  %121 = icmp ne i32 %120, 0
  br i1 %121, label %126, label %122

122:                                              ; preds = %119
  %123 = load i32, ptr %14, align 4, !tbaa !7
  %124 = icmp ne i32 %123, 0
  br i1 %124, label %126, label %125

125:                                              ; preds = %122
  store i32 0, ptr %3, align 4
  store i32 1, ptr %15, align 4
  br label %164

126:                                              ; preds = %122, %119, %70
  %127 = load ptr, ptr %6, align 8, !tbaa !31
  %128 = getelementptr inbounds nuw %struct.IDASpilsMemRec, ptr %127, i32 0, i32 19
  %129 = load i64, ptr %128, align 8, !tbaa !83
  %130 = add nsw i64 %129, 1
  store i64 %130, ptr %128, align 8, !tbaa !83
  %131 = load ptr, ptr %6, align 8, !tbaa !31
  %132 = getelementptr inbounds nuw %struct.IDASpilsMemRec, ptr %131, i32 0, i32 19
  %133 = load i64, ptr %132, align 8, !tbaa !83
  %134 = icmp sgt i64 %133, 10
  br i1 %134, label %135, label %136

135:                                              ; preds = %126
  store i32 1, ptr %3, align 4
  store i32 1, ptr %15, align 4
  br label %164

136:                                              ; preds = %126
  %137 = load i32, ptr %12, align 4, !tbaa !7
  %138 = icmp ne i32 %137, 0
  br i1 %138, label %139, label %145

139:                                              ; preds = %136
  %140 = load ptr, ptr %4, align 8, !tbaa !9
  %141 = load ptr, ptr %4, align 8, !tbaa !9
  %142 = getelementptr inbounds nuw %struct.IDAMemRec, ptr %141, i32 0, i32 112
  %143 = load double, ptr %142, align 8, !tbaa !65
  %144 = load double, ptr %7, align 8, !tbaa !85
  call void (ptr, i32, ptr, ptr, ptr, ...) @IDAProcessError(ptr noundef %140, i32 noundef 99, ptr noundef @.str, ptr noundef @.str.14, ptr noundef @.str.15, double noundef %143, double noundef %144)
  br label %145

145:                                              ; preds = %139, %136
  %146 = load i32, ptr %13, align 4, !tbaa !7
  %147 = icmp ne i32 %146, 0
  br i1 %147, label %148, label %154

148:                                              ; preds = %145
  %149 = load ptr, ptr %4, align 8, !tbaa !9
  %150 = load ptr, ptr %4, align 8, !tbaa !9
  %151 = getelementptr inbounds nuw %struct.IDAMemRec, ptr %150, i32 0, i32 112
  %152 = load double, ptr %151, align 8, !tbaa !65
  %153 = load double, ptr %8, align 8, !tbaa !85
  call void (ptr, i32, ptr, ptr, ptr, ...) @IDAProcessError(ptr noundef %149, i32 noundef 99, ptr noundef @.str, ptr noundef @.str.14, ptr noundef @.str.16, double noundef %152, double noundef %153)
  br label %154

154:                                              ; preds = %148, %145
  %155 = load i32, ptr %14, align 4, !tbaa !7
  %156 = icmp ne i32 %155, 0
  br i1 %156, label %157, label %163

157:                                              ; preds = %154
  %158 = load ptr, ptr %4, align 8, !tbaa !9
  %159 = load ptr, ptr %4, align 8, !tbaa !9
  %160 = getelementptr inbounds nuw %struct.IDAMemRec, ptr %159, i32 0, i32 112
  %161 = load double, ptr %160, align 8, !tbaa !65
  %162 = load double, ptr %9, align 8, !tbaa !85
  call void (ptr, i32, ptr, ptr, ptr, ...) @IDAProcessError(ptr noundef %158, i32 noundef 99, ptr noundef @.str, ptr noundef @.str.14, ptr noundef @.str.17, double noundef %161, double noundef %162)
  br label %163

163:                                              ; preds = %157, %154
  store i32 0, ptr %3, align 4
  store i32 1, ptr %15, align 4
  br label %164

164:                                              ; preds = %163, %135, %125, %69, %21
  call void @llvm.lifetime.end.p0(i64 4, ptr %14) #5
  call void @llvm.lifetime.end.p0(i64 4, ptr %13) #5
  call void @llvm.lifetime.end.p0(i64 4, ptr %12) #5
  call void @llvm.lifetime.end.p0(i64 8, ptr %11) #5
  call void @llvm.lifetime.end.p0(i64 8, ptr %10) #5
  call void @llvm.lifetime.end.p0(i64 8, ptr %9) #5
  call void @llvm.lifetime.end.p0(i64 8, ptr %8) #5
  call void @llvm.lifetime.end.p0(i64 8, ptr %7) #5
  call void @llvm.lifetime.end.p0(i64 8, ptr %6) #5
  %165 = load i32, ptr %3, align 4
  ret i32 %165
}