; Function Attrs: nounwind uwtable
define internal range(i32 0, 2) i32 @IDASpgmrPerf(ptr noundef %0, i32 noundef %1) #0 {
  %3 = getelementptr inbounds nuw i8, ptr %0, i64 1632
  %4 = load ptr, ptr %3, align 8, !tbaa !44
  %5 = icmp eq i32 %1, 0
  %6 = getelementptr inbounds nuw i8, ptr %0, i64 1320
  %7 = load i64, ptr %6, align 8, !tbaa !62
  %8 = getelementptr inbounds nuw i8, ptr %4, i64 96
  %9 = getelementptr inbounds nuw i8, ptr %0, i64 1432
  %10 = getelementptr inbounds nuw i8, ptr %4, i64 104
  br i1 %5, label %11, label %23

11:                                               ; preds = %2
  store i64 %7, ptr %8, align 8, !tbaa !63
  %12 = load i64, ptr %9, align 8, !tbaa !64
  store i64 %12, ptr %10, align 8, !tbaa !65
  %13 = getelementptr inbounds nuw i8, ptr %4, i64 56
  %14 = load i64, ptr %13, align 8, !tbaa !59
  %15 = getelementptr inbounds nuw i8, ptr %4, i64 112
  store i64 %14, ptr %15, align 8, !tbaa !66
  %16 = getelementptr inbounds nuw i8, ptr %0, i64 1376
  %17 = load i64, ptr %16, align 8, !tbaa !67
  %18 = getelementptr inbounds nuw i8, ptr %4, i64 120
  store i64 %17, ptr %18, align 8, !tbaa !68
  %19 = getelementptr inbounds nuw i8, ptr %4, i64 72
  %20 = load i64, ptr %19, align 8, !tbaa !61
  %21 = getelementptr inbounds nuw i8, ptr %4, i64 128
  store i64 %20, ptr %21, align 8, !tbaa !69
  %22 = getelementptr inbounds nuw i8, ptr %4, i64 136
  store i64 0, ptr %22, align 8, !tbaa !70
  br label %78

23:                                               ; preds = %2
  %24 = load i64, ptr %8, align 8, !tbaa !63
  %25 = load i64, ptr %9, align 8, !tbaa !64
  %26 = load i64, ptr %10, align 8, !tbaa !65
  %27 = icmp eq i64 %7, %24
  %28 = icmp eq i64 %25, %26
  %or.cond = select i1 %27, i1 true, i1 %28
  br i1 %or.cond, label %78, label %29

29:                                               ; preds = %23
  %30 = sub nsw i64 %25, %26
  %31 = sub nsw i64 %7, %24
  %32 = getelementptr inbounds nuw i8, ptr %4, i64 56
  %33 = load i64, ptr %32, align 8, !tbaa !59
  %34 = getelementptr inbounds nuw i8, ptr %4, i64 112
  %35 = load i64, ptr %34, align 8, !tbaa !66
  %36 = sub nsw i64 %33, %35
  %37 = sitofp i64 %36 to double
  %38 = sitofp i64 %30 to double
  %39 = fdiv double %37, %38
  %40 = getelementptr inbounds nuw i8, ptr %0, i64 1376
  %41 = load i64, ptr %40, align 8, !tbaa !67
  %42 = getelementptr inbounds nuw i8, ptr %4, i64 120
  %43 = load i64, ptr %42, align 8, !tbaa !68
  %44 = sub nsw i64 %41, %43
  %45 = sitofp i64 %44 to double
  %46 = sitofp i64 %31 to double
  %47 = fdiv double %45, %46
  %48 = getelementptr inbounds nuw i8, ptr %4, i64 72
  %49 = load i64, ptr %48, align 8, !tbaa !61
  %50 = getelementptr inbounds nuw i8, ptr %4, i64 128
  %51 = load i64, ptr %50, align 8, !tbaa !69
  %52 = sub nsw i64 %49, %51
  %53 = sitofp i64 %52 to double
  %54 = fdiv double %53, %38
  %55 = getelementptr inbounds nuw i8, ptr %4, i64 16
  %56 = load i32, ptr %55, align 8, !tbaa !29
  %57 = sitofp i32 %56 to double
  %58 = fcmp ogt double %39, %57
  %59 = fcmp ogt double %47, 9.000000e-01
  %60 = fcmp ogt double %54, 9.000000e-01
  %or.cond3 = select i1 %58, i1 true, i1 %59
  %or.cond5 = select i1 %or.cond3, i1 true, i1 %60
  br i1 %or.cond5, label %61, label %78

61:                                               ; preds = %29
  %62 = getelementptr inbounds nuw i8, ptr %4, i64 136
  %63 = load i64, ptr %62, align 8, !tbaa !70
  %64 = add nsw i64 %63, 1
  store i64 %64, ptr %62, align 8, !tbaa !70
  %65 = icmp sgt i64 %63, 9
  br i1 %65, label %78, label %66

66:                                               ; preds = %61
  br i1 %58, label %67, label %70

67:                                               ; preds = %66
  %68 = getelementptr inbounds nuw i8, ptr %0, i64 1184
  %69 = load double, ptr %68, align 8, !tbaa !49
  tail call void (ptr, i32, ptr, ptr, ptr, ...) @IDAProcessError(ptr noundef nonnull %0, i32 noundef 99, ptr noundef nonnull @.str, ptr noundef nonnull @.str.14, ptr noundef nonnull @.str.15, double noundef %69, double noundef %39) #8
  br label %70

70:                                               ; preds = %67, %66
  br i1 %59, label %71, label %74

71:                                               ; preds = %70
  %72 = getelementptr inbounds nuw i8, ptr %0, i64 1184
  %73 = load double, ptr %72, align 8, !tbaa !49
  tail call void (ptr, i32, ptr, ptr, ptr, ...) @IDAProcessError(ptr noundef nonnull %0, i32 noundef 99, ptr noundef nonnull @.str, ptr noundef nonnull @.str.14, ptr noundef nonnull @.str.16, double noundef %73, double noundef %47) #8
  br label %74

74:                                               ; preds = %71, %70
  br i1 %60, label %75, label %78

75:                                               ; preds = %74
  %76 = getelementptr inbounds nuw i8, ptr %0, i64 1184
  %77 = load double, ptr %76, align 8, !tbaa !49
  tail call void (ptr, i32, ptr, ptr, ptr, ...) @IDAProcessError(ptr noundef nonnull %0, i32 noundef 99, ptr noundef nonnull @.str, ptr noundef nonnull @.str.14, ptr noundef nonnull @.str.17, double noundef %77, double noundef %54) #8
  br label %78

78:                                               ; preds = %74, %75, %61, %29, %23, %11
  %.0 = phi i32 [ 0, %11 ], [ 0, %23 ], [ 0, %29 ], [ 1, %61 ], [ 0, %75 ], [ 0, %74 ]
  ret i32 %.0
}